target datalayout = "e-m:e-p270:32:32-p271:32:32-p272:64:64-i64:64-i128:128-f80:128-n8:16:32:64-S128"
target triple = "x86_64-pc-linux-gnu"

%struct.Vec_Int_t_ = type { i32, i32, ptr }
%struct.Gia_Man_t_ = type { ptr, ptr, i32, i32, i32, i32, ptr, ptr, i32, i32, i32, ptr, ptr, %struct.Vec_Int_t_, %struct.Vec_Int_t_, i32, i32, i32, %struct.Vec_Int_t_, ptr, ptr, ptr, i32, i32, i32, i32, ptr, ptr, ptr, ptr, ptr, i32, i32, ptr, i32, ptr, ptr, ptr, ptr, ptr, ptr, ptr, ptr, ptr, ptr, ptr, ptr, ptr, ptr, ptr, ptr, ptr, ptr, %struct.Vec_Int_t_, %struct.Vec_Int_t_, ptr, ptr, ptr, ptr, ptr, ptr, ptr, ptr, ptr, ptr, ptr, ptr, ptr, ptr, ptr, ptr, ptr, ptr, ptr, ptr, ptr, i32, float, float, ptr, ptr, i32, ptr, ptr, ptr, ptr, ptr, ptr, ptr, ptr, ptr, ptr, ptr, ptr, ptr, ptr, ptr, i64, i64, ptr, ptr, i32, i32, i32, i32, i32, i32, i32, i32, i32, i32, i32, i32, ptr, ptr, ptr, ptr, ptr, ptr, ptr, ptr, i32, i32, i32, ptr, i32, i32, ptr, ptr, ptr, ptr, ptr, ptr, i32, i32, ptr, %struct.Vec_Int_t_, %struct.Vec_Int_t_, %struct.Vec_Int_t_, ptr, ptr, ptr, i32, i32, i32, i32, ptr, ptr, ptr, ptr, ptr }
%struct.Abc_Ntk_t_ = type { i32, i32, ptr, ptr, ptr, ptr, ptr, ptr, ptr, ptr, ptr, ptr, ptr, [11 x i32], i32, i32, i32, i32, ptr, i32, ptr, ptr, i32, i32, i32, double, i32, %struct.Vec_Int_t_, ptr, ptr, ptr, ptr, ptr, float, i32, ptr, ptr, ptr, ptr, ptr, ptr, ptr, ptr, ptr, ptr, ptr, ptr, ptr, ptr, ptr, ptr, ptr, ptr, ptr, ptr, ptr, ptr }

; Function Attrs: inlinehint nounwind uwtable
define internal ptr @Abc_UtilStrsav(ptr noundef %0) #2 {
  %2 = alloca ptr, align 8
  store ptr %0, ptr %2, align 8, !tbaa !58
  %3 = load ptr, ptr %2, align 8, !tbaa !58
  %4 = icmp ne ptr %3, null
  br i1 %4, label %5, label %13

5:                                                ; preds = %1
  %6 = load ptr, ptr %2, align 8, !tbaa !58
  %7 = call i64 @strlen(ptr noundef %6) #14
  %8 = add i64 %7, 1
  %9 = mul i64 1, %8
  %10 = call noalias ptr @malloc(i64 noundef %9) #13
  %11 = load ptr, ptr %2, align 8, !tbaa !58
  %12 = call ptr @strcpy(ptr noundef %10, ptr noundef %11) #12
  br label %14

13:                                               ; preds = %1
  br label %14

14:                                               ; preds = %13, %5
  %15 = phi ptr [ %12, %5 ], [ null, %13 ]
  ret ptr %15
}

; Function Attrs: nounwind uwtable
define i32 @Abc_NtkExtract(ptr noundef %0, ptr noundef %1, i32 noundef %2, i32 noundef %3, ptr noundef %4, ptr noundef %5, ptr noundef %6, ptr noundef %7, ptr noundef %8) #0 {
  %10 = alloca ptr, align 8
  %11 = alloca ptr, align 8
  %12 = alloca i32, align 4
  %13 = alloca i32, align 4
  %14 = alloca ptr, align 8
  %15 = alloca ptr, align 8
  %16 = alloca ptr, align 8
  %17 = alloca ptr, align 8
  %18 = alloca ptr, align 8
  %19 = alloca ptr, align 8
  %20 = alloca ptr, align 8
  %21 = alloca i32, align 4
  %22 = alloca ptr, align 8
  %23 = alloca ptr, align 8
  store ptr %0, ptr %10, align 8, !tbaa !58
  store ptr %1, ptr %11, align 8, !tbaa !58
  store i32 %2, ptr %12, align 4, !tbaa !8
  store i32 %3, ptr %13, align 4, !tbaa !8
  store ptr %4, ptr %14, align 8, !tbaa !177
  store ptr %5, ptr %15, align 8, !tbaa !177
  store ptr %6, ptr %16, align 8, !tbaa !179
  store ptr %7, ptr %17, align 8, !tbaa !162
  store ptr %8, ptr %18, align 8, !tbaa !164
  call void @llvm.lifetime.start.p0(i64 8, ptr %19) #12
  %24 = load ptr, ptr %10, align 8, !tbaa !58
  %25 = load ptr, ptr %10, align 8, !tbaa !58
  %26 = call i32 @Io_ReadFileType(ptr noundef %25)
  %27 = call ptr @Io_Read(ptr noundef %24, i32 noundef %26, i32 noundef 1, i32 noundef 0)
  store ptr %27, ptr %19, align 8, !tbaa !99
  call void @llvm.lifetime.start.p0(i64 8, ptr %20) #12
  %28 = load ptr, ptr %11, align 8, !tbaa !58
  %29 = load ptr, ptr %11, align 8, !tbaa !58
  %30 = call i32 @Io_ReadFileType(ptr noundef %29)
  %31 = call ptr @Io_Read(ptr noundef %28, i32 noundef %30, i32 noundef 1, i32 noundef 0)
  store ptr %31, ptr %20, align 8, !tbaa !99
  call void @llvm.lifetime.start.p0(i64 4, ptr %21) #12
  store i32 -1, ptr %21, align 4, !tbaa !8
  %32 = load ptr, ptr %19, align 8, !tbaa !99
  %33 = icmp ne ptr %32, null
  br i1 %33, label %34, label %65

34:                                               ; preds = %9
  %35 = load ptr, ptr %20, align 8, !tbaa !99
  %36 = icmp ne ptr %35, null
  br i1 %36, label %37, label %65

37:                                               ; preds = %34
  call void @llvm.lifetime.start.p0(i64 8, ptr %22) #12
  %38 = load ptr, ptr %19, align 8, !tbaa !99
  %39 = load i32, ptr %12, align 4, !tbaa !8
  %40 = call ptr @Abc_NtkToGia2(ptr noundef %38, i32 noundef %39)
  store ptr %40, ptr %22, align 8, !tbaa !135
  call void @llvm.lifetime.start.p0(i64 8, ptr %23) #12
  %41 = load ptr, ptr %20, align 8, !tbaa !99
  %42 = call ptr @Abc_NtkToGia2(ptr noundef %41, i32 noundef 0)
  store ptr %42, ptr %23, align 8, !tbaa !135
  %43 = load ptr, ptr %19, align 8, !tbaa !99
  %44 = getelementptr inbounds nuw %struct.Abc_Ntk_t_, ptr %43, i32 0, i32 3
  %45 = load ptr, ptr %44, align 8, !tbaa !208
  %46 = call ptr @Abc_UtilStrsav(ptr noundef %45)
  %47 = load ptr, ptr %22, align 8, !tbaa !135
  %48 = getelementptr inbounds nuw %struct.Gia_Man_t_, ptr %47, i32 0, i32 1
  store ptr %46, ptr %48, align 8, !tbaa !181
  %49 = load ptr, ptr %20, align 8, !tbaa !99
  %50 = getelementptr inbounds nuw %struct.Abc_Ntk_t_, ptr %49, i32 0, i32 3
  %51 = load ptr, ptr %50, align 8, !tbaa !208
  %52 = call ptr @Abc_UtilStrsav(ptr noundef %51)
  %53 = load ptr, ptr %23, align 8, !tbaa !135
  %54 = getelementptr inbounds nuw %struct.Gia_Man_t_, ptr %53, i32 0, i32 1
  store ptr %52, ptr %54, align 8, !tbaa !181
  %55 = load ptr, ptr %22, align 8, !tbaa !135
  %56 = load ptr, ptr %14, align 8, !tbaa !177
  store ptr %55, ptr %56, align 8, !tbaa !135
  %57 = load ptr, ptr %23, align 8, !tbaa !135
  %58 = load ptr, ptr %15, align 8, !tbaa !177
  store ptr %57, ptr %58, align 8, !tbaa !135
  %59 = load ptr, ptr %19, align 8, !tbaa !99
  %60 = load ptr, ptr %22, align 8, !tbaa !135
  %61 = load ptr, ptr %17, align 8, !tbaa !162
  %62 = load ptr, ptr %18, align 8, !tbaa !164
  %63 = call ptr @Abc_NtkCollectCopies(ptr noundef %59, ptr noundef %60, ptr noundef %61, ptr noundef %62)
  %64 = load ptr, ptr %16, align 8, !tbaa !179
  store ptr %63, ptr %64, align 8, !tbaa !27
  store i32 0, ptr %21, align 4, !tbaa !8
  call void @llvm.lifetime.end.p0(i64 8, ptr %23) #12
  call void @llvm.lifetime.end.p0(i64 8, ptr %22) #12
  br label %65

65:                                               ; preds = %37, %34, %9
  %66 = load ptr, ptr %19, align 8, !tbaa !99
  %67 = icmp ne ptr %66, null
  br i1 %67, label %68, label %70

68:                                               ; preds = %65
  %69 = load ptr, ptr %19, align 8, !tbaa !99
  call void @Abc_NtkDelete(ptr noundef %69)
  br label %70

70:                                               ; preds = %68, %65
  %71 = load ptr, ptr %20, align 8, !tbaa !99
  %72 = icmp ne ptr %71, null
  br i1 %72, label %73, label %75

73:                                               ; preds = %70
  %74 = load ptr, ptr %20, align 8, !tbaa !99
  call void @Abc_NtkDelete(ptr noundef %74)
  br label %75

75:                                               ; preds = %73, %70
  %76 = load i32, ptr %21, align 4, !tbaa !8
  call void @llvm.lifetime.end.p0(i64 4, ptr %21) #12
  call void @llvm.lifetime.end.p0(i64 8, ptr %20) #12
  call void @llvm.lifetime.end.p0(i64 8, ptr %19) #12
  ret i32 %76
}