; Function Attrs: nounwind uwtable
define range(i32 -1, 1) i32 @Abc_NtkExtract(ptr noundef %0, ptr noundef %1, i32 noundef %2, i32 noundef %3, ptr noundef writeonly captures(none) %4, ptr noundef writeonly captures(none) %5, ptr noundef writeonly captures(none) %6, ptr noundef writeonly captures(none) %7, ptr noundef writeonly captures(none) %8) local_unnamed_addr #0 {
  %10 = tail call i32 @Io_ReadFileType(ptr noundef %0) #27
  %11 = tail call ptr @Io_Read(ptr noundef %0, i32 noundef %10, i32 noundef 1, i32 noundef 0) #27
  %12 = tail call i32 @Io_ReadFileType(ptr noundef %1) #27
  %13 = tail call ptr @Io_Read(ptr noundef %1, i32 noundef %12, i32 noundef 1, i32 noundef 0) #27
  %14 = icmp ne ptr %11, null
  %15 = icmp ne ptr %13, null
  %or.cond = select i1 %14, i1 %15, i1 false
  br i1 %or.cond, label %16, label %38

16:                                               ; preds = %9
  %17 = tail call ptr @Abc_NtkToGia2(ptr noundef nonnull %11, i32 poison)
  %18 = tail call ptr @Abc_NtkToGia2(ptr noundef nonnull %13, i32 poison)
  %19 = getelementptr inbounds nuw i8, ptr %11, i64 16
  %20 = load ptr, ptr %19, align 8, !tbaa !210
  %.not.i = icmp eq ptr %20, null
  br i1 %.not.i, label %Abc_UtilStrsav.exit, label %21

21:                                               ; preds = %16
  %22 = tail call i64 @strlen(ptr noundef nonnull readonly dereferenceable(1) %20) #28
  %23 = add i64 %22, 1
  %24 = tail call noalias ptr @malloc(i64 noundef %23) #26
  %25 = tail call ptr @strcpy(ptr noundef nonnull dereferenceable(1) %24, ptr noundef nonnull readonly dereferenceable(1) %20) #27
  br label %Abc_UtilStrsav.exit

Abc_UtilStrsav.exit:                              ; preds = %16, %21
  %26 = phi ptr [ %24, %21 ], [ null, %16 ]
  %27 = getelementptr inbounds nuw i8, ptr %17, i64 8
  store ptr %26, ptr %27, align 8, !tbaa !182
  %28 = getelementptr inbounds nuw i8, ptr %13, i64 16
  %29 = load ptr, ptr %28, align 8, !tbaa !210
  %.not.i30 = icmp eq ptr %29, null
  br i1 %.not.i30, label %.thread, label %30

30:                                               ; preds = %Abc_UtilStrsav.exit
  %31 = tail call i64 @strlen(ptr noundef nonnull readonly dereferenceable(1) %29) #28
  %32 = add i64 %31, 1
  %33 = tail call noalias ptr @malloc(i64 noundef %32) #26
  %34 = tail call ptr @strcpy(ptr noundef nonnull dereferenceable(1) %33, ptr noundef nonnull readonly dereferenceable(1) %29) #27
  br label %.thread

.thread:                                          ; preds = %30, %Abc_UtilStrsav.exit
  %35 = phi ptr [ %33, %30 ], [ null, %Abc_UtilStrsav.exit ]
  %36 = getelementptr inbounds nuw i8, ptr %18, i64 8
  store ptr %35, ptr %36, align 8, !tbaa !182
  store ptr %17, ptr %4, align 8, !tbaa !183
  store ptr %18, ptr %5, align 8, !tbaa !183
  %37 = tail call ptr @Abc_NtkCollectCopies(ptr noundef nonnull %11, ptr noundef nonnull %17, ptr noundef %7, ptr noundef %8)
  store ptr %37, ptr %6, align 8, !tbaa !184
  br label %39

38:                                               ; preds = %9
  br i1 %14, label %39, label %40

39:                                               ; preds = %.thread, %38
  %.034 = phi i32 [ 0, %.thread ], [ -1, %38 ]
  tail call void @Abc_NtkDelete(ptr noundef nonnull %11) #27
  br label %40

40:                                               ; preds = %39, %38
  %.033 = phi i32 [ %.034, %39 ], [ -1, %38 ]
  br i1 %15, label %41, label %42

41:                                               ; preds = %40
  tail call void @Abc_NtkDelete(ptr noundef nonnull %13) #27
  br label %42

42:                                               ; preds = %41, %40
  ret i32 %.033
}